target datalayout = "e-m:e-p270:32:32-p271:32:32-p272:64:64-i64:64-i128:128-f80:128-n8:16:32:64-S128"
target triple = "x86_64-pc-linux-gnu"

%struct._zval_struct = type { %union._zend_value, %union.anon, %union.anon.2 }
%union._zend_value = type { i64 }
%union.anon = type { i32 }
%union.anon.2 = type { i32 }
%struct._zend_refcounted_h = type { i32, %union.anon.3 }
%union.anon.3 = type { i32 }
%struct._zend_object_handlers = type { i32, ptr, ptr, ptr, ptr, ptr, ptr, ptr, ptr, ptr, ptr, ptr, ptr, ptr, ptr, ptr, ptr, ptr, ptr, ptr, ptr, ptr, ptr, ptr, ptr }
%struct._zend_object = type { %struct._zend_refcounted_h, i32, i32, ptr, ptr, ptr, [1 x %struct._zval_struct] }
%struct.anon.0 = type { i8, i8, %union.anon.1 }
%union.anon.1 = type { i16 }
%struct._zend_reference = type { %struct._zend_refcounted_h, %struct._zval_struct, %union.zend_property_info_source_list }
%union.zend_property_info_source_list = type { ptr }

@.str.6 = private unnamed_addr constant [3 x i8] c"**\00", align 1

; Function Attrs: alwaysinline nounwind uwtable
define internal i32 @zendi_try_convert_scalar_to_number(ptr noundef %0, ptr noundef %1) #1 {
  %3 = alloca i32, align 4
  %4 = alloca ptr, align 8
  %5 = alloca ptr, align 8
  %6 = alloca ptr, align 8
  %7 = alloca ptr, align 8
  %8 = alloca ptr, align 8
  %9 = alloca i32, align 4
  store ptr %0, ptr %4, align 8, !tbaa !12
  store ptr %1, ptr %5, align 8, !tbaa !12
  %10 = load ptr, ptr %4, align 8, !tbaa !12
  %11 = call zeroext i8 @zval_get_type(ptr noundef %10)
  %12 = zext i8 %11 to i32
  %13 = icmp eq i32 %12, 4
  br i1 %13, label %19, label %14

14:                                               ; preds = %2
  %15 = load ptr, ptr %4, align 8, !tbaa !12
  %16 = call zeroext i8 @zval_get_type(ptr noundef %15)
  %17 = zext i8 %16 to i32
  %18 = icmp eq i32 %17, 5
  br i1 %18, label %19, label %39

19:                                               ; preds = %14, %2
  br label %20

20:                                               ; preds = %19
  call void @llvm.lifetime.start.p0(i64 8, ptr %6) #20
  %21 = load ptr, ptr %5, align 8, !tbaa !12
  store ptr %21, ptr %6, align 8, !tbaa !12
  call void @llvm.lifetime.start.p0(i64 8, ptr %7) #20
  %22 = load ptr, ptr %4, align 8, !tbaa !12
  store ptr %22, ptr %7, align 8, !tbaa !12
  call void @llvm.lifetime.start.p0(i64 8, ptr %8) #20
  %23 = load ptr, ptr %7, align 8, !tbaa !12
  %24 = getelementptr inbounds nuw %struct._zval_struct, ptr %23, i32 0, i32 0
  %25 = load ptr, ptr %24, align 8, !tbaa !11
  store ptr %25, ptr %8, align 8, !tbaa !42
  call void @llvm.lifetime.start.p0(i64 4, ptr %9) #20
  %26 = load ptr, ptr %7, align 8, !tbaa !12
  %27 = getelementptr inbounds nuw %struct._zval_struct, ptr %26, i32 0, i32 1
  %28 = load i32, ptr %27, align 8, !tbaa !11
  store i32 %28, ptr %9, align 4, !tbaa !44
  br label %29

29:                                               ; preds = %20
  %30 = load ptr, ptr %8, align 8, !tbaa !42
  %31 = load ptr, ptr %6, align 8, !tbaa !12
  %32 = getelementptr inbounds nuw %struct._zval_struct, ptr %31, i32 0, i32 0
  store ptr %30, ptr %32, align 8, !tbaa !11
  %33 = load i32, ptr %9, align 4, !tbaa !44
  %34 = load ptr, ptr %6, align 8, !tbaa !12
  %35 = getelementptr inbounds nuw %struct._zval_struct, ptr %34, i32 0, i32 1
  store i32 %33, ptr %35, align 8, !tbaa !11
  br label %36

36:                                               ; preds = %29
  br label %37

37:                                               ; preds = %36
  call void @llvm.lifetime.end.p0(i64 4, ptr %9) #20
  call void @llvm.lifetime.end.p0(i64 8, ptr %8) #20
  call void @llvm.lifetime.end.p0(i64 8, ptr %7) #20
  call void @llvm.lifetime.end.p0(i64 8, ptr %6) #20
  br label %38

38:                                               ; preds = %37
  store i32 0, ptr %3, align 4
  br label %43

39:                                               ; preds = %14
  %40 = load ptr, ptr %4, align 8, !tbaa !12
  %41 = load ptr, ptr %5, align 8, !tbaa !12
  %42 = call i32 @_zendi_try_convert_scalar_to_number(ptr noundef %40, ptr noundef %41)
  store i32 %42, ptr %3, align 4
  br label %43

43:                                               ; preds = %39, %38
  %44 = load i32, ptr %3, align 4
  ret i32 %44
}

; Function Attrs: alwaysinline nounwind uwtable
define internal zeroext i8 @zval_get_type(ptr noundef %0) #1 {
  %2 = alloca ptr, align 8
  store ptr %0, ptr %2, align 8, !tbaa !12
  %3 = load ptr, ptr %2, align 8, !tbaa !12
  %4 = getelementptr inbounds nuw %struct._zval_struct, ptr %3, i32 0, i32 1
  %5 = getelementptr inbounds nuw %struct.anon.0, ptr %4, i32 0, i32 0
  %6 = load i8, ptr %5, align 8, !tbaa !11
  ret i8 %6
}

; Function Attrs: nounwind uwtable
define dso_local i32 @pow_function(ptr noundef %0, ptr noundef %1, ptr noundef %2) #0 {
  %4 = alloca i32, align 4
  %5 = alloca ptr, align 8
  %6 = alloca ptr, align 8
  %7 = alloca ptr, align 8
  %8 = alloca %struct._zval_struct, align 8
  %9 = alloca %struct._zval_struct, align 8
  %10 = alloca i32, align 4
  store ptr %0, ptr %5, align 8, !tbaa !12
  store ptr %1, ptr %6, align 8, !tbaa !12
  store ptr %2, ptr %7, align 8, !tbaa !12
  br label %11

11:                                               ; preds = %3
  %12 = load ptr, ptr %6, align 8, !tbaa !12
  %13 = call zeroext i8 @zval_get_type(ptr noundef %12)
  %14 = zext i8 %13 to i32
  %15 = icmp eq i32 %14, 10
  %16 = xor i1 %15, true
  %17 = xor i1 %16, true
  %18 = zext i1 %17 to i32
  %19 = sext i32 %18 to i64
  %20 = call i64 @llvm.expect.i64(i64 %19, i64 0)
  %21 = icmp ne i64 %20, 0
  br i1 %21, label %22, label %27

22:                                               ; preds = %11
  %23 = load ptr, ptr %6, align 8, !tbaa !12
  %24 = getelementptr inbounds nuw %struct._zval_struct, ptr %23, i32 0, i32 0
  %25 = load ptr, ptr %24, align 8, !tbaa !11
  %26 = getelementptr inbounds nuw %struct._zend_reference, ptr %25, i32 0, i32 1
  store ptr %26, ptr %6, align 8, !tbaa !12
  br label %27

27:                                               ; preds = %22, %11
  br label %28

28:                                               ; preds = %27
  br label %29

29:                                               ; preds = %28
  %30 = load ptr, ptr %7, align 8, !tbaa !12
  %31 = call zeroext i8 @zval_get_type(ptr noundef %30)
  %32 = zext i8 %31 to i32
  %33 = icmp eq i32 %32, 10
  %34 = xor i1 %33, true
  %35 = xor i1 %34, true
  %36 = zext i1 %35 to i32
  %37 = sext i32 %36 to i64
  %38 = call i64 @llvm.expect.i64(i64 %37, i64 0)
  %39 = icmp ne i64 %38, 0
  br i1 %39, label %40, label %45

40:                                               ; preds = %29
  %41 = load ptr, ptr %7, align 8, !tbaa !12
  %42 = getelementptr inbounds nuw %struct._zval_struct, ptr %41, i32 0, i32 0
  %43 = load ptr, ptr %42, align 8, !tbaa !11
  %44 = getelementptr inbounds nuw %struct._zend_reference, ptr %43, i32 0, i32 1
  store ptr %44, ptr %7, align 8, !tbaa !12
  br label %45

45:                                               ; preds = %40, %29
  br label %46

46:                                               ; preds = %45
  %47 = load ptr, ptr %5, align 8, !tbaa !12
  %48 = load ptr, ptr %6, align 8, !tbaa !12
  %49 = load ptr, ptr %7, align 8, !tbaa !12
  %50 = call i32 @pow_function_base(ptr noundef %47, ptr noundef %48, ptr noundef %49)
  %51 = icmp eq i32 %50, 0
  br i1 %51, label %52, label %53

52:                                               ; preds = %46
  store i32 0, ptr %4, align 4
  br label %193

53:                                               ; preds = %46
  %54 = load ptr, ptr %6, align 8, !tbaa !12
  %55 = call zeroext i8 @zval_get_type(ptr noundef %54)
  %56 = zext i8 %55 to i32
  %57 = icmp eq i32 %56, 8
  %58 = xor i1 %57, true
  %59 = xor i1 %58, true
  %60 = zext i1 %59 to i32
  %61 = sext i32 %60 to i64
  %62 = call i64 @llvm.expect.i64(i64 %61, i64 0)
  %63 = icmp ne i64 %62, 0
  br i1 %63, label %64, label %100

64:                                               ; preds = %53
  %65 = load ptr, ptr %6, align 8, !tbaa !12
  %66 = getelementptr inbounds nuw %struct._zval_struct, ptr %65, i32 0, i32 0
  %67 = load ptr, ptr %66, align 8, !tbaa !11
  %68 = getelementptr inbounds nuw %struct._zend_object, ptr %67, i32 0, i32 4
  %69 = load ptr, ptr %68, align 8, !tbaa !22
  %70 = getelementptr inbounds nuw %struct._zend_object_handlers, ptr %69, i32 0, i32 22
  %71 = load ptr, ptr %70, align 8, !tbaa !99
  %72 = icmp ne ptr %71, null
  %73 = xor i1 %72, true
  %74 = xor i1 %73, true
  %75 = zext i1 %74 to i32
  %76 = sext i32 %75 to i64
  %77 = call i64 @llvm.expect.i64(i64 %76, i64 0)
  %78 = icmp ne i64 %77, 0
  br i1 %78, label %79, label %100

79:                                               ; preds = %64
  %80 = load ptr, ptr %6, align 8, !tbaa !12
  %81 = getelementptr inbounds nuw %struct._zval_struct, ptr %80, i32 0, i32 0
  %82 = load ptr, ptr %81, align 8, !tbaa !11
  %83 = getelementptr inbounds nuw %struct._zend_object, ptr %82, i32 0, i32 4
  %84 = load ptr, ptr %83, align 8, !tbaa !22
  %85 = getelementptr inbounds nuw %struct._zend_object_handlers, ptr %84, i32 0, i32 22
  %86 = load ptr, ptr %85, align 8, !tbaa !99
  %87 = load ptr, ptr %5, align 8, !tbaa !12
  %88 = load ptr, ptr %6, align 8, !tbaa !12
  %89 = load ptr, ptr %7, align 8, !tbaa !12
  %90 = call i32 %86(i8 noundef zeroext 12, ptr noundef %87, ptr noundef %88, ptr noundef %89)
  %91 = icmp eq i32 0, %90
  %92 = xor i1 %91, true
  %93 = xor i1 %92, true
  %94 = zext i1 %93 to i32
  %95 = sext i32 %94 to i64
  %96 = call i64 @llvm.expect.i64(i64 %95, i64 1)
  %97 = icmp ne i64 %96, 0
  br i1 %97, label %98, label %99

98:                                               ; preds = %79
  store i32 0, ptr %4, align 4
  br label %193

99:                                               ; preds = %79
  br label %147

100:                                              ; preds = %64, %53
  %101 = load ptr, ptr %7, align 8, !tbaa !12
  %102 = call zeroext i8 @zval_get_type(ptr noundef %101)
  %103 = zext i8 %102 to i32
  %104 = icmp eq i32 %103, 8
  %105 = xor i1 %104, true
  %106 = xor i1 %105, true
  %107 = zext i1 %106 to i32
  %108 = sext i32 %107 to i64
  %109 = call i64 @llvm.expect.i64(i64 %108, i64 0)
  %110 = icmp ne i64 %109, 0
  br i1 %110, label %111, label %146

111:                                              ; preds = %100
  %112 = load ptr, ptr %7, align 8, !tbaa !12
  %113 = getelementptr inbounds nuw %struct._zval_struct, ptr %112, i32 0, i32 0
  %114 = load ptr, ptr %113, align 8, !tbaa !11
  %115 = getelementptr inbounds nuw %struct._zend_object, ptr %114, i32 0, i32 4
  %116 = load ptr, ptr %115, align 8, !tbaa !22
  %117 = getelementptr inbounds nuw %struct._zend_object_handlers, ptr %116, i32 0, i32 22
  %118 = load ptr, ptr %117, align 8, !tbaa !99
  %119 = icmp ne ptr %118, null
  %120 = xor i1 %119, true
  %121 = xor i1 %120, true
  %122 = zext i1 %121 to i32
  %123 = sext i32 %122 to i64
  %124 = call i64 @llvm.expect.i64(i64 %123, i64 0)
  %125 = icmp ne i64 %124, 0
  br i1 %125, label %126, label %146

126:                                              ; preds = %111
  %127 = load ptr, ptr %7, align 8, !tbaa !12
  %128 = getelementptr inbounds nuw %struct._zval_struct, ptr %127, i32 0, i32 0
  %129 = load ptr, ptr %128, align 8, !tbaa !11
  %130 = getelementptr inbounds nuw %struct._zend_object, ptr %129, i32 0, i32 4
  %131 = load ptr, ptr %130, align 8, !tbaa !22
  %132 = getelementptr inbounds nuw %struct._zend_object_handlers, ptr %131, i32 0, i32 22
  %133 = load ptr, ptr %132, align 8, !tbaa !99
  %134 = load ptr, ptr %5, align 8, !tbaa !12
  %135 = load ptr, ptr %6, align 8, !tbaa !12
  %136 = load ptr, ptr %7, align 8, !tbaa !12
  %137 = call i32 %133(i8 noundef zeroext 12, ptr noundef %134, ptr noundef %135, ptr noundef %136)
  %138 = icmp eq i32 0, %137
  %139 = xor i1 %138, true
  %140 = xor i1 %139, true
  %141 = zext i1 %140 to i32
  %142 = sext i32 %141 to i64
  %143 = call i64 @llvm.expect.i64(i64 %142, i64 1)
  %144 = icmp ne i64 %143, 0
  br i1 %144, label %145, label %146

145:                                              ; preds = %126
  store i32 0, ptr %4, align 4
  br label %193

146:                                              ; preds = %126, %111, %100
  br label %147

147:                                              ; preds = %146, %99
  call void @llvm.lifetime.start.p0(i64 16, ptr %8) #20
  call void @llvm.lifetime.start.p0(i64 16, ptr %9) #20
  %148 = load ptr, ptr %6, align 8, !tbaa !12
  %149 = call i32 @zendi_try_convert_scalar_to_number(ptr noundef %148, ptr noundef %8)
  %150 = icmp eq i32 %149, -1
  %151 = xor i1 %150, true
  %152 = xor i1 %151, true
  %153 = zext i1 %152 to i32
  %154 = sext i32 %153 to i64
  %155 = call i64 @llvm.expect.i64(i64 %154, i64 0)
  %156 = icmp ne i64 %155, 0
  br i1 %156, label %167, label %157

157:                                              ; preds = %147
  %158 = load ptr, ptr %7, align 8, !tbaa !12
  %159 = call i32 @zendi_try_convert_scalar_to_number(ptr noundef %158, ptr noundef %9)
  %160 = icmp eq i32 %159, -1
  %161 = xor i1 %160, true
  %162 = xor i1 %161, true
  %163 = zext i1 %162 to i32
  %164 = sext i32 %163 to i64
  %165 = call i64 @llvm.expect.i64(i64 %164, i64 0)
  %166 = icmp ne i64 %165, 0
  br i1 %166, label %167, label %180

167:                                              ; preds = %157, %147
  %168 = load ptr, ptr %6, align 8, !tbaa !12
  %169 = load ptr, ptr %7, align 8, !tbaa !12
  call void @zend_binop_error(ptr noundef @.str.6, ptr noundef %168, ptr noundef %169)
  %170 = load ptr, ptr %5, align 8, !tbaa !12
  %171 = load ptr, ptr %6, align 8, !tbaa !12
  %172 = icmp ne ptr %170, %171
  br i1 %172, label %173, label %179

173:                                              ; preds = %167
  br label %174

174:                                              ; preds = %173
  %175 = load ptr, ptr %5, align 8, !tbaa !12
  %176 = getelementptr inbounds nuw %struct._zval_struct, ptr %175, i32 0, i32 1
  store i32 0, ptr %176, align 8, !tbaa !11
  br label %177

177:                                              ; preds = %174
  br label %178

178:                                              ; preds = %177
  br label %179

179:                                              ; preds = %178, %167
  store i32 -1, ptr %4, align 4
  store i32 1, ptr %10, align 4
  br label %192

180:                                              ; preds = %157
  %181 = load ptr, ptr %5, align 8, !tbaa !12
  %182 = load ptr, ptr %6, align 8, !tbaa !12
  %183 = icmp eq ptr %181, %182
  br i1 %183, label %184, label %186

184:                                              ; preds = %180
  %185 = load ptr, ptr %5, align 8, !tbaa !12
  call void @zval_ptr_dtor(ptr noundef %185)
  br label %186

186:                                              ; preds = %184, %180
  %187 = load ptr, ptr %5, align 8, !tbaa !12
  %188 = call i32 @pow_function_base(ptr noundef %187, ptr noundef %8, ptr noundef %9)
  %189 = icmp eq i32 %188, 0
  br i1 %189, label %190, label %191

190:                                              ; preds = %186
  store i32 0, ptr %4, align 4
  store i32 1, ptr %10, align 4
  br label %192

191:                                              ; preds = %186
  call void @llvm.assume(i1 false)
  store i32 -1, ptr %4, align 4
  store i32 1, ptr %10, align 4
  br label %192

192:                                              ; preds = %191, %190, %179
  call void @llvm.lifetime.end.p0(i64 16, ptr %9) #20
  call void @llvm.lifetime.end.p0(i64 16, ptr %8) #20
  br label %193

193:                                              ; preds = %192, %145, %98, %52
  %194 = load i32, ptr %4, align 4
  ret i32 %194
}