; Function Attrs: nounwind uwtable
define dso_local range(i32 -1, 1) i32 @pow_function(ptr noundef %0, ptr noundef %1, ptr noundef %2) local_unnamed_addr #1 {
  %4 = alloca %struct._zval_struct, align 8
  %5 = alloca %struct._zval_struct, align 8
  %6 = getelementptr inbounds nuw i8, ptr %1, i64 8
  %7 = load i8, ptr %6, align 8, !tbaa !4
  %8 = icmp eq i8 %7, 10
  br i1 %8, label %9, label %12, !prof !41

9:                                                ; preds = %3
  %10 = load ptr, ptr %1, align 8, !tbaa !4
  %11 = getelementptr inbounds nuw i8, ptr %10, i64 8
  br label %12

12:                                               ; preds = %9, %3
  %.030 = phi ptr [ %11, %9 ], [ %1, %3 ]
  %13 = getelementptr inbounds nuw i8, ptr %2, i64 8
  %14 = load i8, ptr %13, align 8, !tbaa !4
  %15 = icmp eq i8 %14, 10
  br i1 %15, label %16, label %19, !prof !41

16:                                               ; preds = %12
  %17 = load ptr, ptr %2, align 8, !tbaa !4
  %18 = getelementptr inbounds nuw i8, ptr %17, i64 8
  br label %19

19:                                               ; preds = %12, %16
  %.0 = phi ptr [ %18, %16 ], [ %2, %12 ]
  %20 = tail call fastcc i32 @pow_function_base(ptr noundef %0, ptr noundef nonnull %.030, ptr noundef nonnull %.0)
  %21 = icmp eq i32 %20, 0
  br i1 %21, label %75, label %22

22:                                               ; preds = %19
  %23 = getelementptr inbounds nuw i8, ptr %.030, i64 8
  %24 = load i8, ptr %23, align 8, !tbaa !4
  %25 = icmp eq i8 %24, 8
  br i1 %25, label %26, label %35, !prof !41

26:                                               ; preds = %22
  %27 = load ptr, ptr %.030, align 8, !tbaa !4
  %28 = getelementptr inbounds nuw i8, ptr %27, i64 24
  %29 = load ptr, ptr %28, align 8, !tbaa !16
  %30 = getelementptr inbounds nuw i8, ptr %29, i64 176
  %31 = load ptr, ptr %30, align 8, !tbaa !89
  %.not = icmp eq ptr %31, null
  br i1 %.not, label %35, label %32, !prof !38

32:                                               ; preds = %26
  %33 = tail call i32 %31(i8 noundef zeroext 12, ptr noundef %0, ptr noundef nonnull %.030, ptr noundef nonnull %.0) #28
  %34 = icmp eq i32 %33, 0
  br i1 %34, label %75, label %48, !prof !38

35:                                               ; preds = %26, %22
  %36 = getelementptr inbounds nuw i8, ptr %.0, i64 8
  %37 = load i8, ptr %36, align 8, !tbaa !4
  %38 = icmp eq i8 %37, 8
  br i1 %38, label %39, label %48, !prof !41

39:                                               ; preds = %35
  %40 = load ptr, ptr %.0, align 8, !tbaa !4
  %41 = getelementptr inbounds nuw i8, ptr %40, i64 24
  %42 = load ptr, ptr %41, align 8, !tbaa !16
  %43 = getelementptr inbounds nuw i8, ptr %42, i64 176
  %44 = load ptr, ptr %43, align 8, !tbaa !89
  %.not36 = icmp eq ptr %44, null
  br i1 %.not36, label %48, label %45, !prof !38

45:                                               ; preds = %39
  %46 = tail call i32 %44(i8 noundef zeroext 12, ptr noundef %0, ptr noundef nonnull %.030, ptr noundef nonnull %.0) #28
  %47 = icmp eq i32 %46, 0
  br i1 %47, label %75, label %48, !prof !38

48:                                               ; preds = %35, %39, %45, %32
  call void @llvm.lifetime.start.p0(i64 16, ptr nonnull %4) #28
  call void @llvm.lifetime.start.p0(i64 16, ptr nonnull %5) #28
  %49 = load i8, ptr %23, align 8, !tbaa !4
  %50 = and i8 %49, -2
  %switch = icmp eq i8 %50, 4
  br i1 %switch, label %zendi_try_convert_scalar_to_number.exit.thread, label %zendi_try_convert_scalar_to_number.exit

zendi_try_convert_scalar_to_number.exit.thread:   ; preds = %48
  %51 = load ptr, ptr %.030, align 8, !tbaa !4
  %52 = load i32, ptr %23, align 8, !tbaa !4
  store ptr %51, ptr %4, align 8, !tbaa !4
  %53 = getelementptr inbounds nuw i8, ptr %4, i64 8
  store i32 %52, ptr %53, align 8, !tbaa !4
  br label %56

zendi_try_convert_scalar_to_number.exit:          ; preds = %48
  %54 = call fastcc i32 @_zendi_try_convert_scalar_to_number(ptr noundef nonnull %.030, ptr noundef nonnull %4)
  %55 = icmp eq i32 %54, -1
  br i1 %55, label %65, label %56, !prof !94

56:                                               ; preds = %zendi_try_convert_scalar_to_number.exit.thread, %zendi_try_convert_scalar_to_number.exit
  %57 = getelementptr inbounds nuw i8, ptr %.0, i64 8
  %58 = load i8, ptr %57, align 8, !tbaa !4
  %59 = and i8 %58, -2
  %switch43 = icmp eq i8 %59, 4
  br i1 %switch43, label %zendi_try_convert_scalar_to_number.exit39.thread, label %zendi_try_convert_scalar_to_number.exit39

zendi_try_convert_scalar_to_number.exit39.thread: ; preds = %56
  %60 = load ptr, ptr %.0, align 8, !tbaa !4
  %61 = load i32, ptr %57, align 8, !tbaa !4
  store ptr %60, ptr %5, align 8, !tbaa !4
  %62 = getelementptr inbounds nuw i8, ptr %5, i64 8
  store i32 %61, ptr %62, align 8, !tbaa !4
  br label %68

zendi_try_convert_scalar_to_number.exit39:        ; preds = %56
  %63 = call fastcc i32 @_zendi_try_convert_scalar_to_number(ptr noundef nonnull %.0, ptr noundef nonnull %5)
  %64 = icmp eq i32 %63, -1
  br i1 %64, label %65, label %68, !prof !94

65:                                               ; preds = %zendi_try_convert_scalar_to_number.exit39, %zendi_try_convert_scalar_to_number.exit
  call fastcc void @zend_binop_error(ptr noundef nonnull @.str.6, ptr noundef nonnull %.030, ptr noundef nonnull %.0)
  %.not37 = icmp eq ptr %0, %.030
  br i1 %.not37, label %74, label %66

66:                                               ; preds = %65
  %67 = getelementptr inbounds nuw i8, ptr %0, i64 8
  store i32 0, ptr %67, align 8, !tbaa !4
  br label %74

68:                                               ; preds = %zendi_try_convert_scalar_to_number.exit39.thread, %zendi_try_convert_scalar_to_number.exit39
  %69 = icmp eq ptr %0, %.030
  br i1 %69, label %70, label %71

70:                                               ; preds = %68
  call void @zval_ptr_dtor(ptr noundef %0) #28
  br label %71

71:                                               ; preds = %70, %68
  %72 = call fastcc i32 @pow_function_base(ptr noundef %0, ptr noundef nonnull %4, ptr noundef nonnull %5)
  %73 = icmp eq i32 %72, 0
  call void @llvm.assume(i1 %73)
  br label %74

74:                                               ; preds = %65, %66, %71
  %.1 = phi i32 [ 0, %71 ], [ -1, %66 ], [ -1, %65 ]
  call void @llvm.lifetime.end.p0(i64 16, ptr nonnull %5) #28
  call void @llvm.lifetime.end.p0(i64 16, ptr nonnull %4) #28
  br label %75

75:                                               ; preds = %45, %32, %19, %74
  %.031 = phi i32 [ %.1, %74 ], [ 0, %19 ], [ 0, %32 ], [ 0, %45 ]
  ret i32 %.031
}